target datalayout = "e-m:e-p270:32:32-p271:32:32-p272:64:64-i64:64-i128:128-f80:128-n8:16:32:64-S128"
target triple = "x86_64-pc-linux-gnu"

%struct.PaAlsaHostApiRepresentation = type { %struct.PaUtilHostApiRepresentation, %struct.PaUtilStreamInterface, %struct.PaUtilStreamInterface, ptr, i32, i32 }
%struct.PaUtilHostApiRepresentation = type { %struct.PaUtilPrivatePaFrontHostApiInfo, %struct.PaHostApiInfo, ptr, ptr, ptr, ptr }
%struct.PaUtilPrivatePaFrontHostApiInfo = type { i64 }
%struct.PaHostApiInfo = type { i32, i32, ptr, i32, i32, i32 }
%struct.PaUtilStreamInterface = type { ptr, ptr, ptr, ptr, ptr, ptr, ptr, ptr, ptr, ptr, ptr, ptr }
%struct.HwDevInfo = type { ptr, ptr, i32, i32, i32 }
%struct.PaAlsaDeviceInfo = type { %struct.PaDeviceInfo, ptr, i32, i32, i32 }
%struct.PaDeviceInfo = type { i32, ptr, i32, i32, i32, double, double, double, double, double }

@busyRetries_ = internal global i32 100, align 4
@alsa_snd_pcm_open = internal global ptr null, align 8
@.str.59 = private unnamed_addr constant [8 x i8] c"default\00", align 1

; Function Attrs: nounwind uwtable
define internal i32 @OpenPcm(ptr noundef %0, ptr noundef %1, i32 noundef %2, i32 noundef %3, i32 noundef %4) #0 {
  %6 = alloca ptr, align 8
  %7 = alloca ptr, align 8
  %8 = alloca i32, align 4
  %9 = alloca i32, align 4
  %10 = alloca i32, align 4
  %11 = alloca i32, align 4
  %12 = alloca i32, align 4
  %13 = alloca i32, align 4
  store ptr %0, ptr %6, align 8, !tbaa !152
  store ptr %1, ptr %7, align 8, !tbaa !3
  store i32 %2, ptr %8, align 4, !tbaa !8
  store i32 %3, ptr %9, align 4, !tbaa !8
  store i32 %4, ptr %10, align 4, !tbaa !8
  call void @llvm.lifetime.start.p0(i64 4, ptr %11) #17
  call void @llvm.lifetime.start.p0(i64 4, ptr %12) #17
  store i32 0, ptr %12, align 4, !tbaa !8
  call void @llvm.lifetime.start.p0(i64 4, ptr %13) #17
  %14 = load i32, ptr %10, align 4, !tbaa !8
  %15 = icmp ne i32 %14, 0
  br i1 %15, label %16, label %18

16:                                               ; preds = %5
  %17 = load i32, ptr @busyRetries_, align 4, !tbaa !8
  br label %19

18:                                               ; preds = %5
  br label %19

19:                                               ; preds = %18, %16
  %20 = phi i32 [ %17, %16 ], [ 0, %18 ]
  store i32 %20, ptr %13, align 4, !tbaa !8
  %21 = load ptr, ptr @alsa_snd_pcm_open, align 8, !tbaa !32
  %22 = load ptr, ptr %6, align 8, !tbaa !152
  %23 = load ptr, ptr %7, align 8, !tbaa !3
  %24 = load i32, ptr %8, align 4, !tbaa !8
  %25 = load i32, ptr %9, align 4, !tbaa !8
  %26 = call i32 %21(ptr noundef %22, ptr noundef %23, i32 noundef %24, i32 noundef %25)
  store i32 %26, ptr %11, align 4, !tbaa !8
  store i32 0, ptr %12, align 4, !tbaa !8
  br label %27

27:                                               ; preds = %47, %19
  %28 = load i32, ptr %12, align 4, !tbaa !8
  %29 = load i32, ptr %13, align 4, !tbaa !8
  %30 = icmp slt i32 %28, %29
  br i1 %30, label %31, label %34

31:                                               ; preds = %27
  %32 = load i32, ptr %11, align 4, !tbaa !8
  %33 = icmp eq i32 -16, %32
  br label %34

34:                                               ; preds = %31, %27
  %35 = phi i1 [ false, %27 ], [ %33, %31 ]
  br i1 %35, label %36, label %50

36:                                               ; preds = %34
  call void @Pa_Sleep(i64 noundef 10)
  %37 = load ptr, ptr @alsa_snd_pcm_open, align 8, !tbaa !32
  %38 = load ptr, ptr %6, align 8, !tbaa !152
  %39 = load ptr, ptr %7, align 8, !tbaa !3
  %40 = load i32, ptr %8, align 4, !tbaa !8
  %41 = load i32, ptr %9, align 4, !tbaa !8
  %42 = call i32 %37(ptr noundef %38, ptr noundef %39, i32 noundef %40, i32 noundef %41)
  store i32 %42, ptr %11, align 4, !tbaa !8
  %43 = load i32, ptr %11, align 4, !tbaa !8
  %44 = icmp ne i32 -16, %43
  br i1 %44, label %45, label %46

45:                                               ; preds = %36
  br label %46

46:                                               ; preds = %45, %36
  br label %47

47:                                               ; preds = %46
  %48 = load i32, ptr %12, align 4, !tbaa !8
  %49 = add nsw i32 %48, 1
  store i32 %49, ptr %12, align 4, !tbaa !8
  br label %27, !llvm.loop !154

50:                                               ; preds = %34
  %51 = load i32, ptr %11, align 4, !tbaa !8
  %52 = icmp eq i32 -16, %51
  br i1 %52, label %53, label %54

53:                                               ; preds = %50
  br label %59

54:                                               ; preds = %50
  %55 = load i32, ptr %11, align 4, !tbaa !8
  %56 = icmp slt i32 %55, 0
  br i1 %56, label %57, label %58

57:                                               ; preds = %54
  br label %58

58:                                               ; preds = %57, %54
  br label %59

59:                                               ; preds = %58, %53
  %60 = load i32, ptr %11, align 4, !tbaa !8
  call void @llvm.lifetime.end.p0(i64 4, ptr %13) #17
  call void @llvm.lifetime.end.p0(i64 4, ptr %12) #17
  call void @llvm.lifetime.end.p0(i64 4, ptr %11) #17
  ret i32 %60
}

; Function Attrs: nounwind uwtable
define internal void @InitializeDeviceInfo(ptr noundef %0) #0 {
  %2 = alloca ptr, align 8
  store ptr %0, ptr %2, align 8, !tbaa !136
  %3 = load ptr, ptr %2, align 8, !tbaa !136
  %4 = getelementptr inbounds nuw %struct.PaDeviceInfo, ptr %3, i32 0, i32 0
  store i32 -1, ptr %4, align 8, !tbaa !138
  %5 = load ptr, ptr %2, align 8, !tbaa !136
  %6 = getelementptr inbounds nuw %struct.PaDeviceInfo, ptr %5, i32 0, i32 1
  store ptr null, ptr %6, align 8, !tbaa !141
  %7 = load ptr, ptr %2, align 8, !tbaa !136
  %8 = getelementptr inbounds nuw %struct.PaDeviceInfo, ptr %7, i32 0, i32 2
  store i32 -1, ptr %8, align 8, !tbaa !140
  %9 = load ptr, ptr %2, align 8, !tbaa !136
  %10 = getelementptr inbounds nuw %struct.PaDeviceInfo, ptr %9, i32 0, i32 3
  store i32 0, ptr %10, align 4, !tbaa !145
  %11 = load ptr, ptr %2, align 8, !tbaa !136
  %12 = getelementptr inbounds nuw %struct.PaDeviceInfo, ptr %11, i32 0, i32 4
  store i32 0, ptr %12, align 8, !tbaa !146
  %13 = load ptr, ptr %2, align 8, !tbaa !136
  %14 = getelementptr inbounds nuw %struct.PaDeviceInfo, ptr %13, i32 0, i32 5
  store double -1.000000e+00, ptr %14, align 8, !tbaa !147
  %15 = load ptr, ptr %2, align 8, !tbaa !136
  %16 = getelementptr inbounds nuw %struct.PaDeviceInfo, ptr %15, i32 0, i32 6
  store double -1.000000e+00, ptr %16, align 8, !tbaa !148
  %17 = load ptr, ptr %2, align 8, !tbaa !136
  %18 = getelementptr inbounds nuw %struct.PaDeviceInfo, ptr %17, i32 0, i32 7
  store double -1.000000e+00, ptr %18, align 8, !tbaa !149
  %19 = load ptr, ptr %2, align 8, !tbaa !136
  %20 = getelementptr inbounds nuw %struct.PaDeviceInfo, ptr %19, i32 0, i32 8
  store double -1.000000e+00, ptr %20, align 8, !tbaa !150
  %21 = load ptr, ptr %2, align 8, !tbaa !136
  %22 = getelementptr inbounds nuw %struct.PaDeviceInfo, ptr %21, i32 0, i32 9
  store double -1.000000e+00, ptr %22, align 8, !tbaa !151
  ret void
}

; Function Attrs: nounwind uwtable
define internal i32 @FillInDevInfo(ptr noundef %0, ptr noundef %1, i32 noundef %2, ptr noundef %3, ptr noundef %4) #0 {
  %6 = alloca ptr, align 8
  %7 = alloca ptr, align 8
  %8 = alloca i32, align 4
  %9 = alloca ptr, align 8
  %10 = alloca ptr, align 8
  %11 = alloca i32, align 4
  %12 = alloca ptr, align 8
  %13 = alloca ptr, align 8
  %14 = alloca ptr, align 8
  store ptr %0, ptr %6, align 8, !tbaa !12
  store ptr %1, ptr %7, align 8, !tbaa !32
  store i32 %2, ptr %8, align 4, !tbaa !8
  store ptr %3, ptr %9, align 8, !tbaa !89
  store ptr %4, ptr %10, align 8, !tbaa !122
  call void @llvm.lifetime.start.p0(i64 4, ptr %11) #17
  store i32 0, ptr %11, align 4, !tbaa !8
  call void @llvm.lifetime.start.p0(i64 8, ptr %12) #17
  %15 = load ptr, ptr %9, align 8, !tbaa !89
  %16 = getelementptr inbounds nuw %struct.PaAlsaDeviceInfo, ptr %15, i32 0, i32 0
  store ptr %16, ptr %12, align 8, !tbaa !136
  call void @llvm.lifetime.start.p0(i64 8, ptr %13) #17
  store ptr null, ptr %13, align 8, !tbaa !102
  call void @llvm.lifetime.start.p0(i64 8, ptr %14) #17
  %17 = load ptr, ptr %6, align 8, !tbaa !12
  %18 = getelementptr inbounds nuw %struct.PaAlsaHostApiRepresentation, ptr %17, i32 0, i32 0
  store ptr %18, ptr %14, align 8, !tbaa !24
  %19 = load ptr, ptr %12, align 8, !tbaa !136
  call void @InitializeDeviceInfo(ptr noundef %19)
  %20 = load ptr, ptr %7, align 8, !tbaa !32
  %21 = getelementptr inbounds nuw %struct.HwDevInfo, ptr %20, i32 0, i32 4
  %22 = load i32, ptr %21, align 8, !tbaa !82
  %23 = icmp ne i32 %22, 0
  br i1 %23, label %24, label %42

24:                                               ; preds = %5
  %25 = load ptr, ptr %7, align 8, !tbaa !32
  %26 = getelementptr inbounds nuw %struct.HwDevInfo, ptr %25, i32 0, i32 0
  %27 = load ptr, ptr %26, align 8, !tbaa !77
  %28 = load i32, ptr %8, align 4, !tbaa !8
  %29 = call i32 @OpenPcm(ptr noundef %13, ptr noundef %27, i32 noundef 1, i32 noundef %28, i32 noundef 0)
  %30 = icmp sge i32 %29, 0
  br i1 %30, label %31, label %42

31:                                               ; preds = %24
  %32 = load ptr, ptr %13, align 8, !tbaa !102
  %33 = load ptr, ptr %7, align 8, !tbaa !32
  %34 = getelementptr inbounds nuw %struct.HwDevInfo, ptr %33, i32 0, i32 2
  %35 = load i32, ptr %34, align 8, !tbaa !80
  %36 = load i32, ptr %8, align 4, !tbaa !8
  %37 = load ptr, ptr %9, align 8, !tbaa !89
  %38 = call i32 @GropeDevice(ptr noundef %32, i32 noundef %35, i32 noundef 0, i32 noundef %36, ptr noundef %37)
  %39 = icmp ne i32 %38, 0
  br i1 %39, label %40, label %41

40:                                               ; preds = %31
  br label %157

41:                                               ; preds = %31
  br label %42

42:                                               ; preds = %41, %24, %5
  %43 = load ptr, ptr %7, align 8, !tbaa !32
  %44 = getelementptr inbounds nuw %struct.HwDevInfo, ptr %43, i32 0, i32 3
  %45 = load i32, ptr %44, align 4, !tbaa !81
  %46 = icmp ne i32 %45, 0
  br i1 %46, label %47, label %65

47:                                               ; preds = %42
  %48 = load ptr, ptr %7, align 8, !tbaa !32
  %49 = getelementptr inbounds nuw %struct.HwDevInfo, ptr %48, i32 0, i32 0
  %50 = load ptr, ptr %49, align 8, !tbaa !77
  %51 = load i32, ptr %8, align 4, !tbaa !8
  %52 = call i32 @OpenPcm(ptr noundef %13, ptr noundef %50, i32 noundef 0, i32 noundef %51, i32 noundef 0)
  %53 = icmp sge i32 %52, 0
  br i1 %53, label %54, label %65

54:                                               ; preds = %47
  %55 = load ptr, ptr %13, align 8, !tbaa !102
  %56 = load ptr, ptr %7, align 8, !tbaa !32
  %57 = getelementptr inbounds nuw %struct.HwDevInfo, ptr %56, i32 0, i32 2
  %58 = load i32, ptr %57, align 8, !tbaa !80
  %59 = load i32, ptr %8, align 4, !tbaa !8
  %60 = load ptr, ptr %9, align 8, !tbaa !89
  %61 = call i32 @GropeDevice(ptr noundef %55, i32 noundef %58, i32 noundef 1, i32 noundef %59, ptr noundef %60)
  %62 = icmp ne i32 %61, 0
  br i1 %62, label %63, label %64

63:                                               ; preds = %54
  br label %157

64:                                               ; preds = %54
  br label %65

65:                                               ; preds = %64, %47, %42
  %66 = load ptr, ptr %12, align 8, !tbaa !136
  %67 = getelementptr inbounds nuw %struct.PaDeviceInfo, ptr %66, i32 0, i32 0
  store i32 2, ptr %67, align 8, !tbaa !138
  %68 = load ptr, ptr %6, align 8, !tbaa !12
  %69 = getelementptr inbounds nuw %struct.PaAlsaHostApiRepresentation, ptr %68, i32 0, i32 4
  %70 = load i32, ptr %69, align 8, !tbaa !22
  %71 = load ptr, ptr %12, align 8, !tbaa !136
  %72 = getelementptr inbounds nuw %struct.PaDeviceInfo, ptr %71, i32 0, i32 2
  store i32 %70, ptr %72, align 8, !tbaa !140
  %73 = load ptr, ptr %7, align 8, !tbaa !32
  %74 = getelementptr inbounds nuw %struct.HwDevInfo, ptr %73, i32 0, i32 1
  %75 = load ptr, ptr %74, align 8, !tbaa !79
  %76 = load ptr, ptr %12, align 8, !tbaa !136
  %77 = getelementptr inbounds nuw %struct.PaDeviceInfo, ptr %76, i32 0, i32 1
  store ptr %75, ptr %77, align 8, !tbaa !141
  %78 = load ptr, ptr %7, align 8, !tbaa !32
  %79 = getelementptr inbounds nuw %struct.HwDevInfo, ptr %78, i32 0, i32 0
  %80 = load ptr, ptr %79, align 8, !tbaa !77
  %81 = load ptr, ptr %9, align 8, !tbaa !89
  %82 = getelementptr inbounds nuw %struct.PaAlsaDeviceInfo, ptr %81, i32 0, i32 1
  store ptr %80, ptr %82, align 8, !tbaa !142
  %83 = load ptr, ptr %7, align 8, !tbaa !32
  %84 = getelementptr inbounds nuw %struct.HwDevInfo, ptr %83, i32 0, i32 2
  %85 = load i32, ptr %84, align 8, !tbaa !80
  %86 = load ptr, ptr %9, align 8, !tbaa !89
  %87 = getelementptr inbounds nuw %struct.PaAlsaDeviceInfo, ptr %86, i32 0, i32 2
  store i32 %85, ptr %87, align 8, !tbaa !144
  %88 = load ptr, ptr %12, align 8, !tbaa !136
  %89 = getelementptr inbounds nuw %struct.PaDeviceInfo, ptr %88, i32 0, i32 3
  %90 = load i32, ptr %89, align 4, !tbaa !145
  %91 = icmp sgt i32 %90, 0
  br i1 %91, label %97, label %92

92:                                               ; preds = %65
  %93 = load ptr, ptr %12, align 8, !tbaa !136
  %94 = getelementptr inbounds nuw %struct.PaDeviceInfo, ptr %93, i32 0, i32 4
  %95 = load i32, ptr %94, align 8, !tbaa !146
  %96 = icmp sgt i32 %95, 0
  br i1 %96, label %97, label %155

97:                                               ; preds = %92, %65
  %98 = load ptr, ptr %14, align 8, !tbaa !24
  %99 = getelementptr inbounds nuw %struct.PaUtilHostApiRepresentation, ptr %98, i32 0, i32 1
  %100 = getelementptr inbounds nuw %struct.PaHostApiInfo, ptr %99, i32 0, i32 4
  %101 = load i32, ptr %100, align 4, !tbaa !66
  %102 = icmp eq i32 %101, -1
  br i1 %102, label %109, label %103

103:                                              ; preds = %97
  %104 = load ptr, ptr %7, align 8, !tbaa !32
  %105 = getelementptr inbounds nuw %struct.HwDevInfo, ptr %104, i32 0, i32 0
  %106 = load ptr, ptr %105, align 8, !tbaa !77
  %107 = call i32 @strcmp(ptr noundef %106, ptr noundef @.str.59) #18
  %108 = icmp ne i32 %107, 0
  br i1 %108, label %120, label %109

109:                                              ; preds = %103, %97
  %110 = load ptr, ptr %12, align 8, !tbaa !136
  %111 = getelementptr inbounds nuw %struct.PaDeviceInfo, ptr %110, i32 0, i32 3
  %112 = load i32, ptr %111, align 4, !tbaa !145
  %113 = icmp sgt i32 %112, 0
  br i1 %113, label %114, label %120

114:                                              ; preds = %109
  %115 = load ptr, ptr %10, align 8, !tbaa !122
  %116 = load i32, ptr %115, align 4, !tbaa !8
  %117 = load ptr, ptr %14, align 8, !tbaa !24
  %118 = getelementptr inbounds nuw %struct.PaUtilHostApiRepresentation, ptr %117, i32 0, i32 1
  %119 = getelementptr inbounds nuw %struct.PaHostApiInfo, ptr %118, i32 0, i32 4
  store i32 %116, ptr %119, align 4, !tbaa !66
  br label %120

120:                                              ; preds = %114, %109, %103
  %121 = load ptr, ptr %14, align 8, !tbaa !24
  %122 = getelementptr inbounds nuw %struct.PaUtilHostApiRepresentation, ptr %121, i32 0, i32 1
  %123 = getelementptr inbounds nuw %struct.PaHostApiInfo, ptr %122, i32 0, i32 5
  %124 = load i32, ptr %123, align 8, !tbaa !67
  %125 = icmp eq i32 %124, -1
  br i1 %125, label %132, label %126

126:                                              ; preds = %120
  %127 = load ptr, ptr %7, align 8, !tbaa !32
  %128 = getelementptr inbounds nuw %struct.HwDevInfo, ptr %127, i32 0, i32 0
  %129 = load ptr, ptr %128, align 8, !tbaa !77
  %130 = call i32 @strcmp(ptr noundef %129, ptr noundef @.str.59) #18
  %131 = icmp ne i32 %130, 0
  br i1 %131, label %143, label %132

132:                                              ; preds = %126, %120
  %133 = load ptr, ptr %12, align 8, !tbaa !136
  %134 = getelementptr inbounds nuw %struct.PaDeviceInfo, ptr %133, i32 0, i32 4
  %135 = load i32, ptr %134, align 8, !tbaa !146
  %136 = icmp sgt i32 %135, 0
  br i1 %136, label %137, label %143

137:                                              ; preds = %132
  %138 = load ptr, ptr %10, align 8, !tbaa !122
  %139 = load i32, ptr %138, align 4, !tbaa !8
  %140 = load ptr, ptr %14, align 8, !tbaa !24
  %141 = getelementptr inbounds nuw %struct.PaUtilHostApiRepresentation, ptr %140, i32 0, i32 1
  %142 = getelementptr inbounds nuw %struct.PaHostApiInfo, ptr %141, i32 0, i32 5
  store i32 %139, ptr %142, align 8, !tbaa !67
  br label %143

143:                                              ; preds = %137, %132, %126
  %144 = load ptr, ptr %9, align 8, !tbaa !89
  %145 = load ptr, ptr %14, align 8, !tbaa !24
  %146 = getelementptr inbounds nuw %struct.PaUtilHostApiRepresentation, ptr %145, i32 0, i32 2
  %147 = load ptr, ptr %146, align 8, !tbaa !88
  %148 = load ptr, ptr %10, align 8, !tbaa !122
  %149 = load i32, ptr %148, align 4, !tbaa !8
  %150 = sext i32 %149 to i64
  %151 = getelementptr inbounds ptr, ptr %147, i64 %150
  store ptr %144, ptr %151, align 8, !tbaa !136
  %152 = load ptr, ptr %10, align 8, !tbaa !122
  %153 = load i32, ptr %152, align 4, !tbaa !8
  %154 = add nsw i32 %153, 1
  store i32 %154, ptr %152, align 4, !tbaa !8
  br label %156

155:                                              ; preds = %92
  br label %156

156:                                              ; preds = %155, %143
  br label %157

157:                                              ; preds = %156, %63, %40
  %158 = load i32, ptr %11, align 4, !tbaa !8
  call void @llvm.lifetime.end.p0(i64 8, ptr %14) #17
  call void @llvm.lifetime.end.p0(i64 8, ptr %13) #17
  call void @llvm.lifetime.end.p0(i64 8, ptr %12) #17
  call void @llvm.lifetime.end.p0(i64 4, ptr %11) #17
  ret i32 %158
}