; Function Attrs: nounwind uwtable
define internal fastcc void @FillInDevInfo(ptr noundef nonnull captures(none) %0, ptr noundef readonly captures(none) %1, i32 noundef range(i32 0, 2) %2, ptr noundef nonnull initializes((0, 4), (8, 28), (32, 72)) %3, ptr noundef nonnull captures(none) %4) unnamed_addr #2 {
  %6 = alloca ptr, align 8
  call void @llvm.lifetime.start.p0(i64 8, ptr nonnull %6) #25
  store ptr null, ptr %6, align 8, !tbaa !153
  store i32 -1, ptr %3, align 8, !tbaa !154
  %7 = getelementptr inbounds nuw i8, ptr %3, i64 8
  store ptr null, ptr %7, align 8, !tbaa !156
  %8 = getelementptr inbounds nuw i8, ptr %3, i64 16
  store i32 -1, ptr %8, align 8, !tbaa !157
  %9 = getelementptr inbounds nuw i8, ptr %3, i64 20
  store i32 0, ptr %9, align 4, !tbaa !158
  %10 = getelementptr inbounds nuw i8, ptr %3, i64 24
  store i32 0, ptr %10, align 8, !tbaa !159
  %11 = getelementptr inbounds nuw i8, ptr %3, i64 32
  store double -1.000000e+00, ptr %11, align 8, !tbaa !160
  %12 = getelementptr inbounds nuw i8, ptr %3, i64 40
  store double -1.000000e+00, ptr %12, align 8, !tbaa !161
  %13 = getelementptr inbounds nuw i8, ptr %3, i64 48
  store double -1.000000e+00, ptr %13, align 8, !tbaa !162
  %14 = getelementptr inbounds nuw i8, ptr %3, i64 56
  store double -1.000000e+00, ptr %14, align 8, !tbaa !163
  %15 = getelementptr inbounds nuw i8, ptr %3, i64 64
  store double -1.000000e+00, ptr %15, align 8, !tbaa !164
  %16 = getelementptr inbounds nuw i8, ptr %1, i64 24
  %17 = load i32, ptr %16, align 8, !tbaa !105
  %.not = icmp eq i32 %17, 0
  br i1 %.not, label %27, label %18

18:                                               ; preds = %5
  %19 = load ptr, ptr %1, align 8, !tbaa !100
  %20 = call i32 @snd_pcm_open(ptr noundef nonnull %6, ptr noundef %19, i32 noundef 1, i32 noundef range(i32 0, 2) %2) #25, !callees !165
  %21 = icmp sgt i32 %20, -1
  br i1 %21, label %22, label %27

22:                                               ; preds = %18
  %23 = load ptr, ptr %6, align 8, !tbaa !153
  %24 = getelementptr inbounds nuw i8, ptr %1, i64 16
  %25 = load i32, ptr %24, align 8, !tbaa !103
  %26 = call fastcc i32 @GropeDevice(ptr noundef %23, i32 noundef %25, i32 noundef 0, ptr noundef %3)
  %.not40 = icmp eq i32 %26, 0
  br i1 %.not40, label %27, label %82

27:                                               ; preds = %22, %18, %5
  %28 = getelementptr inbounds nuw i8, ptr %1, i64 20
  %29 = load i32, ptr %28, align 4, !tbaa !104
  %.not41 = icmp eq i32 %29, 0
  br i1 %.not41, label %39, label %30

30:                                               ; preds = %27
  %31 = load ptr, ptr %1, align 8, !tbaa !100
  %32 = call i32 @snd_pcm_open(ptr noundef nonnull %6, ptr noundef %31, i32 noundef 0, i32 noundef range(i32 0, 2) %2) #25, !callees !165
  %33 = icmp sgt i32 %32, -1
  br i1 %33, label %34, label %39

34:                                               ; preds = %30
  %35 = load ptr, ptr %6, align 8, !tbaa !153
  %36 = getelementptr inbounds nuw i8, ptr %1, i64 16
  %37 = load i32, ptr %36, align 8, !tbaa !103
  %38 = call fastcc i32 @GropeDevice(ptr noundef %35, i32 noundef %37, i32 noundef 1, ptr noundef %3)
  %.not42 = icmp eq i32 %38, 0
  br i1 %.not42, label %39, label %82

39:                                               ; preds = %34, %30, %27
  store i32 2, ptr %3, align 8, !tbaa !154
  %40 = getelementptr inbounds nuw i8, ptr %0, i64 272
  %41 = load i32, ptr %40, align 8, !tbaa !19
  store i32 %41, ptr %8, align 8, !tbaa !157
  %42 = getelementptr inbounds nuw i8, ptr %1, i64 8
  %43 = load ptr, ptr %42, align 8, !tbaa !102
  store ptr %43, ptr %7, align 8, !tbaa !156
  %44 = load ptr, ptr %1, align 8, !tbaa !100
  %45 = getelementptr inbounds nuw i8, ptr %3, i64 72
  store ptr %44, ptr %45, align 8, !tbaa !166
  %46 = getelementptr inbounds nuw i8, ptr %1, i64 16
  %47 = load i32, ptr %46, align 8, !tbaa !103
  %48 = getelementptr inbounds nuw i8, ptr %3, i64 80
  store i32 %47, ptr %48, align 8, !tbaa !168
  %49 = load i32, ptr %9, align 4, !tbaa !158
  %50 = icmp slt i32 %49, 1
  br i1 %50, label %51, label %.thread

51:                                               ; preds = %39
  %52 = load i32, ptr %10, align 8, !tbaa !159
  %53 = icmp sgt i32 %52, 0
  br i1 %53, label %54, label %82

54:                                               ; preds = %51
  %55 = getelementptr inbounds nuw i8, ptr %0, i64 28
  %56 = load i32, ptr %55, align 4, !tbaa !76
  %57 = icmp eq i32 %56, -1
  br i1 %57, label %66, label %61

.thread:                                          ; preds = %39
  %58 = getelementptr inbounds nuw i8, ptr %0, i64 28
  %59 = load i32, ptr %58, align 4, !tbaa !76
  %60 = icmp eq i32 %59, -1
  br i1 %60, label %.thread50, label %61

61:                                               ; preds = %.thread, %54
  %62 = phi ptr [ %58, %.thread ], [ %55, %54 ]
  %63 = call i32 @strcmp(ptr noundef nonnull dereferenceable(1) %44, ptr noundef nonnull dereferenceable(8) @.str.59) #26
  %.not43 = icmp ne i32 %63, 0
  %brmerge = or i1 %50, %.not43
  br i1 %brmerge, label %66, label %.thread50

.thread50:                                        ; preds = %.thread, %61
  %64 = phi ptr [ %62, %61 ], [ %58, %.thread ]
  %65 = load i32, ptr %4, align 4, !tbaa !3
  store i32 %65, ptr %64, align 4, !tbaa !76
  br label %66

66:                                               ; preds = %54, %61, %.thread50
  %67 = getelementptr inbounds nuw i8, ptr %0, i64 32
  %68 = load i32, ptr %67, align 8, !tbaa !77
  %69 = icmp eq i32 %68, -1
  br i1 %69, label %._crit_edge47, label %70

._crit_edge47:                                    ; preds = %66
  %.pre46.pre = load i32, ptr %4, align 4, !tbaa !3
  br label %72

70:                                               ; preds = %66
  %71 = call i32 @strcmp(ptr noundef nonnull dereferenceable(1) %44, ptr noundef nonnull dereferenceable(8) @.str.59) #26
  %.not44 = icmp eq i32 %71, 0
  %.pre46.pre48 = load i32, ptr %4, align 4, !tbaa !3
  br i1 %.not44, label %72, label %._crit_edge

72:                                               ; preds = %._crit_edge47, %70
  %.pre46 = phi i32 [ %.pre46.pre, %._crit_edge47 ], [ %.pre46.pre48, %70 ]
  %73 = load i32, ptr %10, align 8, !tbaa !159
  %74 = icmp sgt i32 %73, 0
  br i1 %74, label %75, label %._crit_edge

75:                                               ; preds = %72
  store i32 %.pre46, ptr %67, align 8, !tbaa !77
  br label %._crit_edge

._crit_edge:                                      ; preds = %70, %75, %72
  %76 = phi i32 [ %.pre46, %75 ], [ %.pre46, %72 ], [ %.pre46.pre48, %70 ]
  %77 = getelementptr inbounds nuw i8, ptr %0, i64 40
  %78 = load ptr, ptr %77, align 8, !tbaa !36
  %79 = sext i32 %76 to i64
  %80 = getelementptr inbounds ptr, ptr %78, i64 %79
  store ptr %3, ptr %80, align 8, !tbaa !37
  %81 = add nsw i32 %76, 1
  store i32 %81, ptr %4, align 4, !tbaa !3
  br label %82

82:                                               ; preds = %._crit_edge, %51, %34, %22
  call void @llvm.lifetime.end.p0(i64 8, ptr nonnull %6) #25
  ret void
}